; Function Attrs: nounwind uwtable
define ptr @duckdb_je_rtree_leaf_elm_lookup_hard(ptr noundef %0, ptr noundef %1, ptr noundef captures(none) %2, i64 noundef %3, i1 noundef zeroext %4, i1 noundef zeroext %5) local_unnamed_addr #0 {
  %7 = getelementptr inbounds nuw i8, ptr %1, i64 120
  %8 = lshr i64 %3, 30
  %9 = and i64 %8, 262143
  %10 = getelementptr inbounds nuw %struct.rtree_node_elm_s, ptr %7, i64 %9
  br i1 %5, label %11, label %16

11:                                               ; preds = %6
  br i1 %4, label %.sink.split, label %12

12:                                               ; preds = %11
  %13 = load atomic i64, ptr %10 acquire, align 8
  %.0.i.i = inttoptr i64 %13 to ptr
  %.not.i = icmp eq i64 %13, 0
  br i1 %.not.i, label %14, label %rtree_child_leaf_read.exit.thread, !prof !10

14:                                               ; preds = %12
  %15 = tail call fastcc ptr @rtree_leaf_init(ptr noundef %0, ptr noundef nonnull %1, ptr noundef nonnull %10)
  br label %rtree_child_leaf_read.exit.thread

16:                                               ; preds = %6
  br i1 %4, label %.sink.split, label %rtree_child_leaf_read.exit

rtree_child_leaf_read.exit:                       ; preds = %16
  %17 = load atomic i64, ptr %10 acquire, align 8
  %.0.i32 = inttoptr i64 %17 to ptr
  br label %rtree_child_leaf_read.exit.thread

rtree_child_leaf_read.exit.thread:                ; preds = %12, %14, %rtree_child_leaf_read.exit
  %18 = phi ptr [ %.0.i32, %rtree_child_leaf_read.exit ], [ %.0.i.i, %12 ], [ %15, %14 ]
  %.not = icmp eq ptr %18, null
  br i1 %.not, label %34, label %20, !prof !10

.sink.split:                                      ; preds = %16, %11
  %19 = load atomic i64, ptr %10 monotonic, align 8
  %.0.i3236 = inttoptr i64 %19 to ptr
  br label %20

20:                                               ; preds = %.sink.split, %rtree_child_leaf_read.exit.thread
  %21 = phi ptr [ %18, %rtree_child_leaf_read.exit.thread ], [ %.0.i3236, %.sink.split ]
  %22 = getelementptr inbounds nuw i8, ptr %2, i64 256
  %23 = getelementptr inbounds nuw i8, ptr %2, i64 272
  tail call void @llvm.memmove.p0.p0.i64(ptr noundef nonnull align 8 dereferenceable(112) %23, ptr noundef nonnull align 8 dereferenceable(112) %22, i64 112, i1 false)
  %24 = and i64 %8, 15
  %25 = getelementptr inbounds nuw [16 x %struct.rtree_ctx_cache_elm_s], ptr %2, i64 0, i64 %24
  %26 = load i64, ptr %25, align 8, !tbaa !11
  store i64 %26, ptr %22, align 8, !tbaa !11
  %27 = getelementptr inbounds nuw i8, ptr %25, i64 8
  %28 = load ptr, ptr %27, align 8, !tbaa !15
  %29 = getelementptr inbounds nuw i8, ptr %2, i64 264
  store ptr %28, ptr %29, align 8, !tbaa !15
  %30 = and i64 %3, -1073741824
  store i64 %30, ptr %25, align 8, !tbaa !11
  store ptr %21, ptr %27, align 8, !tbaa !15
  %31 = lshr i64 %3, 12
  %32 = and i64 %31, 262143
  %33 = getelementptr inbounds nuw %struct.rtree_leaf_elm_s, ptr %21, i64 %32
  br label %34

34:                                               ; preds = %rtree_child_leaf_read.exit.thread, %20
  %.0 = phi ptr [ %33, %20 ], [ null, %rtree_child_leaf_read.exit.thread ]
  ret ptr %.0
}